target datalayout = "e-m:e-p270:32:32-p271:32:32-p272:64:64-i64:64-i128:128-f80:128-n8:16:32:64-S128"
target triple = "x86_64-pc-linux-gnu"

%class.JfrThreadLocal = type <{ ptr, ptr, ptr, ptr, ptr, ptr, ptr, ptr, ptr, ptr, %class.RefCountHandle, i64, i64, i64, i64, i64, i64, i64, i64, i64, i64, i64, i32, i32, i32, i16, i8, i8, i8, i8, i8, [5 x i8] }>
%class.RefCountHandle = type { ptr }
%class.JfrSpinlockHelper = type { ptr }
%class.Thread = type { %class.ThreadShadow.base, i64, [43 x i64], ptr, ptr, i32, ptr, i64, i64, %class.ThreadLocalAllocBuffer, i64, %class.ThreadHeapSampler, %class.ThreadStatisticalInfo, %class.JfrThreadLocal, ptr, ptr, ptr, ptr, ptr, ptr, i64, i32, i32, ptr, i32, i32, i32, i32, i8, ptr }
%class.ThreadShadow.base = type <{ ptr, ptr, ptr, i32 }>
%class.ThreadLocalAllocBuffer = type <{ ptr, ptr, ptr, ptr, ptr, i64, i64, i64, i64, i32, i32, i32, i32, i64, %class.AdaptiveWeightedAverage, [4 x i8] }>
%class.AdaptiveWeightedAverage = type { float, i32, i32, i8, float }
%class.ThreadHeapSampler = type { i64 }
%class.ThreadStatisticalInfo = type { i64, i64 }
%"struct.Atomic::StoreImpl.31" = type { i8 }
%"struct.Atomic::PlatformStore" = type { i8 }

@_ZN6Thread12_thr_currentE = external thread_local global ptr, align 8
@_ZN16java_lang_Thread11_tid_offsetE = external global i32, align 4

; Function Attrs: mustprogress nounwind uwtable
define linkonce_odr hidden noundef i64 @_Z13cast_from_oopIlET_P7oopDesc(ptr noundef %0) #1 comdat {
  %2 = alloca ptr, align 8
  store ptr %0, ptr %2, align 8
  %3 = load ptr, ptr %2, align 8
  %4 = ptrtoint ptr %3 to i64
  ret i64 %4
}

; Function Attrs: mustprogress nounwind uwtable
define linkonce_odr hidden noundef ptr @_ZNK7oopDesc6as_oopEv(ptr noundef nonnull align 8 dereferenceable(16) %0) #1 comdat align 2 {
  %2 = alloca ptr, align 8
  store ptr %0, ptr %2, align 8
  %3 = load ptr, ptr %2, align 8
  ret ptr %3
}

; Function Attrs: mustprogress nounwind uwtable
define linkonce_odr hidden noundef ptr @_ZNK7oopDesc10field_addrIlEEPT_i(ptr noundef nonnull align 8 dereferenceable(16) %0, i32 noundef %1) #1 comdat align 2 {
  %3 = alloca ptr, align 8
  %4 = alloca i32, align 4
  store ptr %0, ptr %3, align 8
  store i32 %1, ptr %4, align 4
  %5 = load ptr, ptr %3, align 8
  %6 = call noundef ptr @_ZNK7oopDesc6as_oopEv(ptr noundef nonnull align 8 dereferenceable(16) %5)
  %7 = call noundef i64 @_Z13cast_from_oopIlET_P7oopDesc(ptr noundef %6)
  %8 = load i32, ptr %4, align 4
  %9 = sext i32 %8 to i64
  %10 = add nsw i64 %7, %9
  %11 = inttoptr i64 %10 to ptr
  ret ptr %11
}

; Function Attrs: mustprogress nounwind uwtable
define linkonce_odr hidden noundef i64 @_ZNK7oopDesc10long_fieldEi(ptr noundef nonnull align 8 dereferenceable(16) %0, i32 noundef %1) #1 comdat align 2 {
  %3 = alloca ptr, align 8
  %4 = alloca i32, align 4
  store ptr %0, ptr %3, align 8
  store i32 %1, ptr %4, align 4
  %5 = load ptr, ptr %3, align 8
  %6 = load i32, ptr %4, align 4
  %7 = call noundef ptr @_ZNK7oopDesc10field_addrIlEEPT_i(ptr noundef nonnull align 8 dereferenceable(16) %5, i32 noundef %6)
  %8 = load i64, ptr %7, align 8
  ret i64 %8
}

; Function Attrs: mustprogress nounwind uwtable
define linkonce_odr hidden noundef i64 @_ZN16java_lang_Thread9thread_idEP7oopDesc(ptr noundef %0) #1 comdat align 2 {
  %2 = alloca ptr, align 8
  store ptr %0, ptr %2, align 8
  %3 = load ptr, ptr %2, align 8
  %4 = load i32, ptr @_ZN16java_lang_Thread11_tid_offsetE, align 4
  %5 = call noundef i64 @_ZNK7oopDesc10long_fieldEi(ptr noundef nonnull align 8 dereferenceable(16) %3, i32 noundef %4)
  ret i64 %5
}

; Function Attrs: mustprogress nounwind uwtable
define linkonce_odr hidden void @_ZNK6Atomic13PlatformStoreILm8EEclImEEvPVT_S3_(ptr noundef nonnull align 1 dereferenceable(1) %0, ptr noundef %1, i64 noundef %2) #1 comdat align 2 {
  %4 = alloca ptr, align 8
  %5 = alloca ptr, align 8
  %6 = alloca i64, align 8
  store ptr %0, ptr %4, align 8
  store ptr %1, ptr %5, align 8
  store i64 %2, ptr %6, align 8
  %7 = load i64, ptr %6, align 8
  %8 = load ptr, ptr %5, align 8
  store volatile i64 %7, ptr %8, align 8
  ret void
}

; Function Attrs: mustprogress nounwind uwtable
define linkonce_odr hidden noundef i64 @_ZN14ThreadIdAccess2idEP7oopDesc(ptr noundef %0) #1 comdat align 2 {
  %2 = alloca ptr, align 8
  store ptr %0, ptr %2, align 8
  %3 = load ptr, ptr %2, align 8
  %4 = call noundef i64 @_ZN16java_lang_Thread9thread_idEP7oopDesc(ptr noundef %3)
  ret i64 %4
}

; Function Attrs: mustprogress nounwind uwtable
define linkonce_odr hidden void @_ZNK6Atomic9StoreImplImmNS_13PlatformStoreILm8EEEvEclEPVmm(ptr noundef nonnull align 1 dereferenceable(1) %0, ptr noundef %1, i64 noundef %2) #1 comdat align 2 {
  %4 = alloca ptr, align 8
  %5 = alloca ptr, align 8
  %6 = alloca i64, align 8
  %7 = alloca %"struct.Atomic::PlatformStore", align 1
  store ptr %0, ptr %4, align 8
  store ptr %1, ptr %5, align 8
  store i64 %2, ptr %6, align 8
  %8 = load ptr, ptr %5, align 8
  %9 = load i64, ptr %6, align 8
  call void @_ZNK6Atomic13PlatformStoreILm8EEclImEEvPVT_S3_(ptr noundef nonnull align 1 dereferenceable(1) %7, ptr noundef %8, i64 noundef %9)
  ret void
}

; Function Attrs: mustprogress nounwind uwtable
define linkonce_odr hidden noundef i64 @_ZN13JfrOopTraceIdI14ThreadIdAccessE2idEP7oopDesc(ptr noundef %0) #1 comdat align 2 {
  %2 = alloca ptr, align 8
  store ptr %0, ptr %2, align 8
  %3 = load ptr, ptr %2, align 8
  %4 = call noundef i64 @_ZN14ThreadIdAccess2idEP7oopDesc(ptr noundef %3)
  ret i64 %4
}

; Function Attrs: mustprogress nounwind uwtable
define linkonce_odr hidden noundef ptr @_ZN10JavaThread4castEPK6Thread(ptr noundef %0) #1 comdat align 2 {
  %2 = alloca ptr, align 8
  store ptr %0, ptr %2, align 8
  %3 = load ptr, ptr %2, align 8
  ret ptr %3
}

; Function Attrs: mustprogress nounwind uwtable
define linkonce_odr hidden void @_ZN17JfrSpinlockHelperD2Ev(ptr noundef nonnull align 8 dereferenceable(8) %0) unnamed_addr #1 comdat align 2 {
  %2 = alloca ptr, align 8
  store ptr %0, ptr %2, align 8
  %3 = load ptr, ptr %2, align 8
  %4 = getelementptr inbounds %class.JfrSpinlockHelper, ptr %3, i32 0, i32 0
  %5 = load ptr, ptr %4, align 8
  call void @_ZN6Thread11SpinReleaseEPVi(ptr noundef %5)
  ret void
}

; Function Attrs: mustprogress nounwind uwtable
define linkonce_odr hidden void @_ZN6Atomic5storeImmEEvPVT_T0_(ptr noundef %0, i64 noundef %1) #1 comdat align 2 {
  %3 = alloca ptr, align 8
  %4 = alloca i64, align 8
  %5 = alloca %"struct.Atomic::StoreImpl.31", align 1
  store ptr %0, ptr %3, align 8
  store i64 %1, ptr %4, align 8
  %6 = load ptr, ptr %3, align 8
  %7 = load i64, ptr %4, align 8
  call void @_ZNK6Atomic9StoreImplImmNS_13PlatformStoreILm8EEEvEclEPVmm(ptr noundef nonnull align 1 dereferenceable(1) %5, ptr noundef %6, i64 noundef %7)
  ret void
}

; Function Attrs: mustprogress nounwind uwtable
define linkonce_odr hidden noundef i64 @_Z19load_java_thread_idPK6Thread(ptr noundef %0) #1 comdat {
  %2 = alloca ptr, align 8
  %3 = alloca ptr, align 8
  store ptr %0, ptr %2, align 8
  %4 = load ptr, ptr %2, align 8
  %5 = call noundef ptr @_ZN10JavaThread4castEPK6Thread(ptr noundef %4)
  %6 = call noundef ptr @_ZNK10JavaThread9threadObjEv(ptr noundef nonnull align 8 dereferenceable(1800) %5)
  store ptr %6, ptr %3, align 8
  %7 = load ptr, ptr %3, align 8
  %8 = icmp ne ptr %7, null
  br i1 %8, label %9, label %12

9:                                                ; preds = %1
  %10 = load ptr, ptr %3, align 8
  %11 = call noundef i64 @_ZN13JfrOopTraceIdI14ThreadIdAccessE2idEP7oopDesc(ptr noundef %10)
  br label %13

12:                                               ; preds = %1
  br label %13

13:                                               ; preds = %12, %9
  %14 = phi i64 [ %11, %9 ], [ 0, %12 ]
  ret i64 %14
}

; Function Attrs: mustprogress nounwind uwtable
define linkonce_odr hidden void @_ZN17JfrSpinlockHelperC2EPVi(ptr noundef nonnull align 8 dereferenceable(8) %0, ptr noundef %1) unnamed_addr #1 comdat align 2 {
  %3 = alloca ptr, align 8
  %4 = alloca ptr, align 8
  store ptr %0, ptr %3, align 8
  store ptr %1, ptr %4, align 8
  %5 = load ptr, ptr %3, align 8
  %6 = getelementptr inbounds %class.JfrSpinlockHelper, ptr %5, i32 0, i32 0
  %7 = load ptr, ptr %4, align 8
  store ptr %7, ptr %6, align 8
  %8 = getelementptr inbounds %class.JfrSpinlockHelper, ptr %5, i32 0, i32 0
  %9 = load ptr, ptr %8, align 8
  call void @_ZN6Thread11SpinAcquireEPViPKc(ptr noundef %9, ptr noundef null)
  ret void
}

; Function Attrs: mustprogress nounwind uwtable
define hidden noundef i64 @_ZN14JfrThreadLocal16assign_thread_idEPK6ThreadPS_(ptr noundef %0, ptr noundef %1) #1 align 2 {
  %3 = alloca i64, align 8
  %4 = alloca ptr, align 8
  %5 = alloca ptr, align 8
  %6 = alloca %class.JfrSpinlockHelper, align 8
  %7 = alloca i64, align 8
  %8 = alloca i32, align 4
  store ptr %0, ptr %4, align 8
  store ptr %1, ptr %5, align 8
  %9 = load ptr, ptr %5, align 8
  %10 = getelementptr inbounds %class.JfrThreadLocal, ptr %9, i32 0, i32 24
  call void @_ZN17JfrSpinlockHelperC2EPVi(ptr noundef nonnull align 8 dereferenceable(8) %6, ptr noundef %10)
  %11 = load ptr, ptr %5, align 8
  %12 = getelementptr inbounds %class.JfrThreadLocal, ptr %11, i32 0, i32 12
  %13 = load i64, ptr %12, align 8
  store i64 %13, ptr %7, align 8
  %14 = load i64, ptr %7, align 8
  %15 = icmp eq i64 %14, 0
  br i1 %15, label %16, label %37

16:                                               ; preds = %2
  %17 = load ptr, ptr %4, align 8
  %18 = load ptr, ptr %17, align 8
  %19 = getelementptr inbounds ptr, ptr %18, i64 7
  %20 = load ptr, ptr %19, align 8
  %21 = call noundef zeroext i1 %20(ptr noundef nonnull align 8 dereferenceable(888) %17)
  br i1 %21, label %22, label %32

22:                                               ; preds = %16
  %23 = load ptr, ptr %4, align 8
  %24 = call noundef i64 @_Z19load_java_thread_idPK6Thread(ptr noundef %23)
  store i64 %24, ptr %7, align 8
  %25 = load i64, ptr %7, align 8
  %26 = load ptr, ptr %5, align 8
  %27 = getelementptr inbounds %class.JfrThreadLocal, ptr %26, i32 0, i32 12
  store i64 %25, ptr %27, align 8
  %28 = load ptr, ptr %5, align 8
  %29 = getelementptr inbounds %class.JfrThreadLocal, ptr %28, i32 0, i32 11
  %30 = load i64, ptr %7, align 8
  call void @_ZN6Atomic5storeImmEEvPVT_T0_(ptr noundef %29, i64 noundef %30)
  %31 = load i64, ptr %7, align 8
  store i64 %31, ptr %3, align 8
  store i32 1, ptr %8, align 4
  br label %39

32:                                               ; preds = %16
  %33 = call noundef i64 @_ZN16ThreadIdentifier4nextEv()
  store i64 %33, ptr %7, align 8
  %34 = load i64, ptr %7, align 8
  %35 = load ptr, ptr %5, align 8
  %36 = getelementptr inbounds %class.JfrThreadLocal, ptr %35, i32 0, i32 12
  store i64 %34, ptr %36, align 8
  br label %37

37:                                               ; preds = %32, %2
  %38 = load i64, ptr %7, align 8
  store i64 %38, ptr %3, align 8
  store i32 1, ptr %8, align 4
  br label %39

39:                                               ; preds = %37, %22
  call void @_ZN17JfrSpinlockHelperD2Ev(ptr noundef nonnull align 8 dereferenceable(8) %6) #5
  %40 = load i64, ptr %3, align 8
  ret i64 %40
}

; Function Attrs: mustprogress nounwind uwtable
define hidden noundef i64 @_ZN14JfrThreadLocal13jvm_thread_idEPK6ThreadPS_(ptr noundef %0, ptr noundef %1) #1 align 2 {
  %3 = alloca ptr, align 8
  %4 = alloca ptr, align 8
  store ptr %0, ptr %3, align 8
  store ptr %1, ptr %4, align 8
  %5 = load ptr, ptr %4, align 8
  %6 = getelementptr inbounds %class.JfrThreadLocal, ptr %5, i32 0, i32 12
  %7 = load i64, ptr %6, align 8
  %8 = icmp ne i64 %7, 0
  br i1 %8, label %9, label %13

9:                                                ; preds = %2
  %10 = load ptr, ptr %4, align 8
  %11 = getelementptr inbounds %class.JfrThreadLocal, ptr %10, i32 0, i32 12
  %12 = load i64, ptr %11, align 8
  br label %17

13:                                               ; preds = %2
  %14 = load ptr, ptr %3, align 8
  %15 = load ptr, ptr %4, align 8
  %16 = call noundef i64 @_ZN14JfrThreadLocal16assign_thread_idEPK6ThreadPS_(ptr noundef %14, ptr noundef %15)
  br label %17

17:                                               ; preds = %13, %9
  %18 = phi i64 [ %12, %9 ], [ %16, %13 ]
  ret i64 %18
}

; Function Attrs: mustprogress nounwind uwtable
define linkonce_odr hidden noundef ptr @_ZNK6Thread16jfr_thread_localEv(ptr noundef nonnull align 8 dereferenceable(888) %0) #1 comdat align 2 {
  %2 = alloca ptr, align 8
  store ptr %0, ptr %2, align 8
  %3 = load ptr, ptr %2, align 8
  %4 = getelementptr inbounds %class.Thread, ptr %3, i32 0, i32 13
  ret ptr %4
}

; Function Attrs: mustprogress nounwind uwtable
define hidden noundef i64 @_ZN14JfrThreadLocal13jvm_thread_idEPK6Thread(ptr noundef %0) #1 align 2 {
  %2 = alloca ptr, align 8
  store ptr %0, ptr %2, align 8
  %3 = load ptr, ptr %2, align 8
  %4 = load ptr, ptr %2, align 8
  %5 = call noundef ptr @_ZNK6Thread16jfr_thread_localEv(ptr noundef nonnull align 8 dereferenceable(888) %4)
  %6 = call noundef i64 @_ZN14JfrThreadLocal13jvm_thread_idEPK6ThreadPS_(ptr noundef %3, ptr noundef %5)
  ret i64 %6
}

; Function Attrs: mustprogress nounwind uwtable
define linkonce_odr hidden noundef ptr @_ZN6Thread15current_or_nullEv() #1 comdat align 2 {
  %1 = call align 8 ptr @llvm.threadlocal.address.p0(ptr align 8 @_ZN6Thread12_thr_currentE)
  %2 = load ptr, ptr %1, align 8
  ret ptr %2
}

; Function Attrs: mustprogress nounwind uwtable
define linkonce_odr hidden void @_ZN14RefCountHandleI15RefCountPointerI7JfrBlob23MultiThreadedRefCounterEEC2Ev(ptr noundef nonnull align 8 dereferenceable(8) %0) unnamed_addr #1 comdat align 2 {
  %2 = alloca ptr, align 8
  store ptr %0, ptr %2, align 8
  %3 = load ptr, ptr %2, align 8
  %4 = getelementptr inbounds %class.RefCountHandle, ptr %3, i32 0, i32 0
  store ptr null, ptr %4, align 8
  ret void
}

; Function Attrs: mustprogress nounwind uwtable
define hidden void @_ZN14JfrThreadLocalC2Ev(ptr noundef nonnull align 8 dereferenceable(195) %0) unnamed_addr #1 align 2 {
  %2 = alloca ptr, align 8
  %3 = alloca ptr, align 8
  store ptr %0, ptr %2, align 8
  %4 = load ptr, ptr %2, align 8
  %5 = getelementptr inbounds %class.JfrThreadLocal, ptr %4, i32 0, i32 0
  store ptr null, ptr %5, align 8
  %6 = getelementptr inbounds %class.JfrThreadLocal, ptr %4, i32 0, i32 1
  store ptr null, ptr %6, align 8
  %7 = getelementptr inbounds %class.JfrThreadLocal, ptr %4, i32 0, i32 2
  store ptr null, ptr %7, align 8
  %8 = getelementptr inbounds %class.JfrThreadLocal, ptr %4, i32 0, i32 3
  store ptr null, ptr %8, align 8
  %9 = getelementptr inbounds %class.JfrThreadLocal, ptr %4, i32 0, i32 4
  store ptr null, ptr %9, align 8
  %10 = getelementptr inbounds %class.JfrThreadLocal, ptr %4, i32 0, i32 5
  store ptr null, ptr %10, align 8
  %11 = getelementptr inbounds %class.JfrThreadLocal, ptr %4, i32 0, i32 6
  store ptr null, ptr %11, align 8
  %12 = getelementptr inbounds %class.JfrThreadLocal, ptr %4, i32 0, i32 7
  store ptr null, ptr %12, align 8
  %13 = getelementptr inbounds %class.JfrThreadLocal, ptr %4, i32 0, i32 8
  store ptr null, ptr %13, align 8
  %14 = getelementptr inbounds %class.JfrThreadLocal, ptr %4, i32 0, i32 9
  store ptr null, ptr %14, align 8
  %15 = getelementptr inbounds %class.JfrThreadLocal, ptr %4, i32 0, i32 10
  call void @_ZN14RefCountHandleI15RefCountPointerI7JfrBlob23MultiThreadedRefCounterEEC2Ev(ptr noundef nonnull align 8 dereferenceable(8) %15)
  %16 = getelementptr inbounds %class.JfrThreadLocal, ptr %4, i32 0, i32 11
  store i64 0, ptr %16, align 8
  %17 = getelementptr inbounds %class.JfrThreadLocal, ptr %4, i32 0, i32 12
  store i64 0, ptr %17, align 8
  %18 = getelementptr inbounds %class.JfrThreadLocal, ptr %4, i32 0, i32 13
  store i64 -1, ptr %18, align 8
  %19 = getelementptr inbounds %class.JfrThreadLocal, ptr %4, i32 0, i32 14
  store i64 0, ptr %19, align 8
  %20 = getelementptr inbounds %class.JfrThreadLocal, ptr %4, i32 0, i32 15
  store i64 -1, ptr %20, align 8
  %21 = getelementptr inbounds %class.JfrThreadLocal, ptr %4, i32 0, i32 16
  store i64 0, ptr %21, align 8
  %22 = getelementptr inbounds %class.JfrThreadLocal, ptr %4, i32 0, i32 17
  store i64 0, ptr %22, align 8
  %23 = getelementptr inbounds %class.JfrThreadLocal, ptr %4, i32 0, i32 18
  store i64 0, ptr %23, align 8
  %24 = getelementptr inbounds %class.JfrThreadLocal, ptr %4, i32 0, i32 19
  store i64 0, ptr %24, align 8
  %25 = getelementptr inbounds %class.JfrThreadLocal, ptr %4, i32 0, i32 20
  store i64 0, ptr %25, align 8
  %26 = getelementptr inbounds %class.JfrThreadLocal, ptr %4, i32 0, i32 21
  %27 = call noundef i64 @_ZN2os13javaTimeNanosEv()
  store i64 %27, ptr %26, align 8
  %28 = getelementptr inbounds %class.JfrThreadLocal, ptr %4, i32 0, i32 22
  store i32 0, ptr %28, align 8
  %29 = getelementptr inbounds %class.JfrThreadLocal, ptr %4, i32 0, i32 23
  store volatile i32 0, ptr %29, align 4
  %30 = getelementptr inbounds %class.JfrThreadLocal, ptr %4, i32 0, i32 24
  store volatile i32 0, ptr %30, align 8
  %31 = getelementptr inbounds %class.JfrThreadLocal, ptr %4, i32 0, i32 25
  store i16 0, ptr %31, align 4
  %32 = getelementptr inbounds %class.JfrThreadLocal, ptr %4, i32 0, i32 26
  store i8 0, ptr %32, align 2
  %33 = getelementptr inbounds %class.JfrThreadLocal, ptr %4, i32 0, i32 27
  store i8 0, ptr %33, align 1
  %34 = getelementptr inbounds %class.JfrThreadLocal, ptr %4, i32 0, i32 28
  store i8 0, ptr %34, align 8
  %35 = getelementptr inbounds %class.JfrThreadLocal, ptr %4, i32 0, i32 29
  store i8 0, ptr %35, align 1
  %36 = getelementptr inbounds %class.JfrThreadLocal, ptr %4, i32 0, i32 30
  store i8 0, ptr %36, align 2
  %37 = call noundef ptr @_ZN6Thread15current_or_nullEv()
  store ptr %37, ptr %3, align 8
  %38 = load ptr, ptr %3, align 8
  %39 = icmp ne ptr %38, null
  br i1 %39, label %40, label %43

40:                                               ; preds = %1
  %41 = load ptr, ptr %3, align 8
  %42 = call noundef i64 @_ZN14JfrThreadLocal13jvm_thread_idEPK6Thread(ptr noundef %41)
  br label %44

43:                                               ; preds = %1
  br label %44

44:                                               ; preds = %43, %40
  %45 = phi i64 [ %42, %40 ], [ 0, %43 ]
  %46 = getelementptr inbounds %class.JfrThreadLocal, ptr %4, i32 0, i32 17
  store i64 %45, ptr %46, align 8
  ret void
}