; Function Attrs: mustprogress nounwind uwtable
define hidden void @_ZN14JfrThreadLocalC2Ev(ptr noundef nonnull align 8 dereferenceable(195) %0) unnamed_addr #0 align 2 {
  %2 = getelementptr inbounds i8, ptr %0, i64 104
  tail call void @llvm.memset.p0.i64(ptr noundef nonnull align 8 dereferenceable(104) %0, i8 0, i64 104, i1 false)
  store i64 -1, ptr %2, align 8
  %3 = getelementptr inbounds i8, ptr %0, i64 112
  store i64 0, ptr %3, align 8
  %4 = getelementptr inbounds i8, ptr %0, i64 120
  store i64 -1, ptr %4, align 8
  %5 = getelementptr inbounds i8, ptr %0, i64 128
  %6 = getelementptr inbounds i8, ptr %0, i64 168
  tail call void @llvm.memset.p0.i64(ptr noundef nonnull align 8 dereferenceable(40) %5, i8 0, i64 40, i1 false)
  %7 = tail call noundef i64 @_ZN2os13javaTimeNanosEv() #13
  store i64 %7, ptr %6, align 8
  %8 = getelementptr inbounds i8, ptr %0, i64 176
  store i32 0, ptr %8, align 8
  %9 = getelementptr inbounds i8, ptr %0, i64 180
  store volatile i32 0, ptr %9, align 4
  %10 = getelementptr inbounds i8, ptr %0, i64 184
  store volatile i32 0, ptr %10, align 8
  %11 = getelementptr inbounds i8, ptr %0, i64 188
  %12 = tail call align 8 ptr @llvm.threadlocal.address.p0(ptr align 8 @_ZN6Thread12_thr_currentE)
  tail call void @llvm.memset.p0.i64(ptr noundef nonnull align 4 dereferenceable(7) %11, i8 0, i64 7, i1 false)
  %13 = load ptr, ptr %12, align 8
  %.not = icmp eq ptr %13, null
  br i1 %.not, label %_ZN14JfrThreadLocal13jvm_thread_idEPK6Thread.exit, label %14

14:                                               ; preds = %1
  %15 = getelementptr inbounds i8, ptr %13, i64 680
  %16 = load i64, ptr %15, align 8
  %.not.i.i = icmp eq i64 %16, 0
  br i1 %.not.i.i, label %17, label %_ZN14JfrThreadLocal13jvm_thread_idEPK6Thread.exit

17:                                               ; preds = %14
  %18 = getelementptr inbounds i8, ptr %13, i64 768
  tail call void @_ZN6Thread11SpinAcquireEPViPKc(ptr noundef nonnull %18, ptr noundef null) #13
  %19 = load i64, ptr %15, align 8
  %20 = icmp eq i64 %19, 0
  br i1 %20, label %21, label %_ZN14JfrThreadLocal16assign_thread_idEPK6ThreadPS_.exit.i.i

21:                                               ; preds = %17
  %22 = load ptr, ptr %13, align 8
  %23 = getelementptr inbounds i8, ptr %22, i64 56
  %24 = load ptr, ptr %23, align 8
  %25 = tail call noundef zeroext i1 %24(ptr noundef nonnull align 8 dereferenceable(888) %13) #13
  br i1 %25, label %26, label %37

26:                                               ; preds = %21
  %27 = tail call noundef ptr @_ZNK10JavaThread9threadObjEv(ptr noundef nonnull align 8 dereferenceable(1800) %13) #13
  %.not.i.i.i.i = icmp eq ptr %27, null
  br i1 %.not.i.i.i.i, label %_Z19load_java_thread_idPK6Thread.exit.i.i.i, label %28

28:                                               ; preds = %26
  %29 = load i32, ptr @_ZN16java_lang_Thread11_tid_offsetE, align 4
  %30 = ptrtoint ptr %27 to i64
  %31 = sext i32 %29 to i64
  %32 = add nsw i64 %31, %30
  %33 = inttoptr i64 %32 to ptr
  %34 = load i64, ptr %33, align 8
  br label %_Z19load_java_thread_idPK6Thread.exit.i.i.i

_Z19load_java_thread_idPK6Thread.exit.i.i.i:      ; preds = %28, %26
  %35 = phi i64 [ %34, %28 ], [ 0, %26 ]
  store i64 %35, ptr %15, align 8
  %36 = getelementptr inbounds i8, ptr %13, i64 672
  store volatile i64 %35, ptr %36, align 8
  br label %_ZN14JfrThreadLocal16assign_thread_idEPK6ThreadPS_.exit.i.i

37:                                               ; preds = %21
  %38 = tail call noundef i64 @_ZN16ThreadIdentifier4nextEv() #13
  store i64 %38, ptr %15, align 8
  br label %_ZN14JfrThreadLocal16assign_thread_idEPK6ThreadPS_.exit.i.i

_ZN14JfrThreadLocal16assign_thread_idEPK6ThreadPS_.exit.i.i: ; preds = %37, %_Z19load_java_thread_idPK6Thread.exit.i.i.i, %17
  %.013.i.i.i = phi i64 [ %35, %_Z19load_java_thread_idPK6Thread.exit.i.i.i ], [ %38, %37 ], [ %19, %17 ]
  tail call void @_ZN6Thread11SpinReleaseEPVi(ptr noundef nonnull %18) #13
  br label %_ZN14JfrThreadLocal13jvm_thread_idEPK6Thread.exit

_ZN14JfrThreadLocal13jvm_thread_idEPK6Thread.exit: ; preds = %_ZN14JfrThreadLocal16assign_thread_idEPK6ThreadPS_.exit.i.i, %14, %1
  %39 = phi i64 [ 0, %1 ], [ %.013.i.i.i, %_ZN14JfrThreadLocal16assign_thread_idEPK6ThreadPS_.exit.i.i ], [ %16, %14 ]
  %40 = getelementptr inbounds i8, ptr %0, i64 136
  store i64 %39, ptr %40, align 8
  ret void
}